target datalayout = "e-m:e-p270:32:32-p271:32:32-p272:64:64-i64:64-i128:128-f80:128-n8:16:32:64-S128"
target triple = "x86_64-pc-linux-gnu"

%struct.mbedtls_psa_aead_operation_t = type { i32, i16, i8, i8, %union.anon }
%union.anon = type { %struct.mbedtls_gcm_context }
%struct.mbedtls_gcm_context = type { %struct.mbedtls_cipher_context_t, [16 x [2 x i64]], i64, i64, [16 x i8], [16 x i8], [16 x i8], i8, i8 }
%struct.mbedtls_cipher_context_t = type { ptr, i32, i32, ptr, ptr, [16 x i8], i64, [16 x i8], i64, ptr, ptr }

; Function Attrs: nounwind uwtable
define hidden i32 @mbedtls_psa_aead_set_nonce(ptr noundef %0, ptr noundef %1, i64 noundef %2) #0 {
  %4 = alloca i32, align 4
  %5 = alloca ptr, align 8
  %6 = alloca ptr, align 8
  %7 = alloca i64, align 8
  %8 = alloca i32, align 4
  %9 = alloca i32, align 4
  store ptr %0, ptr %5, align 8, !tbaa !20
  store ptr %1, ptr %6, align 8, !tbaa !8
  store i64 %2, ptr %7, align 8, !tbaa !10
  call void @llvm.lifetime.start.p0(i64 4, ptr %8) #5
  store i32 -151, ptr %8, align 4, !tbaa !12
  %10 = load ptr, ptr %5, align 8, !tbaa !20
  %11 = getelementptr inbounds nuw %struct.mbedtls_psa_aead_operation_t, ptr %10, i32 0, i32 0
  %12 = load i32, ptr %11, align 8, !tbaa !19
  %13 = icmp eq i32 %12, 89129472
  br i1 %13, label %14, label %28

14:                                               ; preds = %3
  %15 = load ptr, ptr %5, align 8, !tbaa !20
  %16 = getelementptr inbounds nuw %struct.mbedtls_psa_aead_operation_t, ptr %15, i32 0, i32 4
  %17 = load ptr, ptr %5, align 8, !tbaa !20
  %18 = getelementptr inbounds nuw %struct.mbedtls_psa_aead_operation_t, ptr %17, i32 0, i32 2
  %19 = load i8, ptr %18, align 2
  %20 = and i8 %19, 1
  %21 = zext i8 %20 to i32
  %22 = icmp ne i32 %21, 0
  %23 = select i1 %22, i32 1, i32 0
  %24 = load ptr, ptr %6, align 8, !tbaa !8
  %25 = load i64, ptr %7, align 8, !tbaa !10
  %26 = call i32 @mbedtls_gcm_starts(ptr noundef %16, i32 noundef %23, ptr noundef %24, i64 noundef %25)
  %27 = call i32 @mbedtls_to_psa_error(i32 noundef %26)
  store i32 %27, ptr %8, align 4, !tbaa !12
  br label %72

28:                                               ; preds = %3
  %29 = load ptr, ptr %5, align 8, !tbaa !20
  %30 = getelementptr inbounds nuw %struct.mbedtls_psa_aead_operation_t, ptr %29, i32 0, i32 0
  %31 = load i32, ptr %30, align 8, !tbaa !19
  %32 = icmp eq i32 %31, 89129216
  br i1 %32, label %33, label %47

33:                                               ; preds = %28
  %34 = load ptr, ptr %5, align 8, !tbaa !20
  %35 = getelementptr inbounds nuw %struct.mbedtls_psa_aead_operation_t, ptr %34, i32 0, i32 4
  %36 = load ptr, ptr %5, align 8, !tbaa !20
  %37 = getelementptr inbounds nuw %struct.mbedtls_psa_aead_operation_t, ptr %36, i32 0, i32 2
  %38 = load i8, ptr %37, align 2
  %39 = and i8 %38, 1
  %40 = zext i8 %39 to i32
  %41 = icmp ne i32 %40, 0
  %42 = select i1 %41, i32 1, i32 0
  %43 = load ptr, ptr %6, align 8, !tbaa !8
  %44 = load i64, ptr %7, align 8, !tbaa !10
  %45 = call i32 @mbedtls_ccm_starts(ptr noundef %35, i32 noundef %42, ptr noundef %43, i64 noundef %44)
  %46 = call i32 @mbedtls_to_psa_error(i32 noundef %45)
  store i32 %46, ptr %8, align 4, !tbaa !12
  br label %71

47:                                               ; preds = %28
  %48 = load ptr, ptr %5, align 8, !tbaa !20
  %49 = getelementptr inbounds nuw %struct.mbedtls_psa_aead_operation_t, ptr %48, i32 0, i32 0
  %50 = load i32, ptr %49, align 8, !tbaa !19
  %51 = icmp eq i32 %50, 84935936
  br i1 %51, label %52, label %69

52:                                               ; preds = %47
  %53 = load i64, ptr %7, align 8, !tbaa !10
  %54 = icmp ne i64 %53, 12
  br i1 %54, label %55, label %56

55:                                               ; preds = %52
  store i32 -135, ptr %4, align 4
  store i32 1, ptr %9, align 4
  br label %74

56:                                               ; preds = %52
  %57 = load ptr, ptr %5, align 8, !tbaa !20
  %58 = getelementptr inbounds nuw %struct.mbedtls_psa_aead_operation_t, ptr %57, i32 0, i32 4
  %59 = load ptr, ptr %6, align 8, !tbaa !8
  %60 = load ptr, ptr %5, align 8, !tbaa !20
  %61 = getelementptr inbounds nuw %struct.mbedtls_psa_aead_operation_t, ptr %60, i32 0, i32 2
  %62 = load i8, ptr %61, align 2
  %63 = and i8 %62, 1
  %64 = zext i8 %63 to i32
  %65 = icmp ne i32 %64, 0
  %66 = select i1 %65, i32 0, i32 1
  %67 = call i32 @mbedtls_chachapoly_starts(ptr noundef %58, ptr noundef %59, i32 noundef %66)
  %68 = call i32 @mbedtls_to_psa_error(i32 noundef %67)
  store i32 %68, ptr %8, align 4, !tbaa !12
  br label %70

69:                                               ; preds = %47
  store i32 -134, ptr %4, align 4
  store i32 1, ptr %9, align 4
  br label %74

70:                                               ; preds = %56
  br label %71

71:                                               ; preds = %70, %33
  br label %72

72:                                               ; preds = %71, %14
  %73 = load i32, ptr %8, align 4, !tbaa !12
  store i32 %73, ptr %4, align 4
  store i32 1, ptr %9, align 4
  br label %74

74:                                               ; preds = %72, %69, %55
  call void @llvm.lifetime.end.p0(i64 4, ptr %8) #5
  %75 = load i32, ptr %4, align 4
  ret i32 %75
}