; Function Attrs: nounwind uwtable
define hidden i32 @mbedtls_psa_aead_set_nonce(ptr noundef %0, ptr noundef %1, i64 noundef %2) local_unnamed_addr #0 {
  %4 = load i32, ptr %0, align 8, !tbaa !9
  switch i32 %4, label %29 [
    i32 89129472, label %5
    i32 89129216, label %12
    i32 84935936, label %19
  ]

5:                                                ; preds = %3
  %6 = getelementptr inbounds nuw i8, ptr %0, i64 8
  %7 = getelementptr inbounds nuw i8, ptr %0, i64 6
  %8 = load i8, ptr %7, align 2
  %9 = and i8 %8, 1
  %10 = zext nneg i8 %9 to i32
  %11 = tail call i32 @mbedtls_gcm_starts(ptr noundef nonnull %6, i32 noundef %10, ptr noundef %1, i64 noundef %2) #4
  br label %.sink.split

12:                                               ; preds = %3
  %13 = getelementptr inbounds nuw i8, ptr %0, i64 8
  %14 = getelementptr inbounds nuw i8, ptr %0, i64 6
  %15 = load i8, ptr %14, align 2
  %16 = and i8 %15, 1
  %17 = zext nneg i8 %16 to i32
  %18 = tail call i32 @mbedtls_ccm_starts(ptr noundef nonnull %13, i32 noundef %17, ptr noundef %1, i64 noundef %2) #4
  br label %.sink.split

19:                                               ; preds = %3
  %.not = icmp eq i64 %2, 12
  br i1 %.not, label %20, label %29

20:                                               ; preds = %19
  %21 = getelementptr inbounds nuw i8, ptr %0, i64 8
  %22 = getelementptr inbounds nuw i8, ptr %0, i64 6
  %23 = load i8, ptr %22, align 2
  %24 = and i8 %23, 1
  %25 = xor i8 %24, 1
  %26 = zext nneg i8 %25 to i32
  %27 = tail call i32 @mbedtls_chachapoly_starts(ptr noundef nonnull %21, ptr noundef %1, i32 noundef %26) #4
  br label %.sink.split

.sink.split:                                      ; preds = %12, %20, %5
  %.sink = phi i32 [ %11, %5 ], [ %27, %20 ], [ %18, %12 ]
  %28 = tail call i32 @mbedtls_to_psa_error(i32 noundef %.sink) #4
  br label %29

29:                                               ; preds = %.sink.split, %3, %19
  %.016 = phi i32 [ -135, %19 ], [ -134, %3 ], [ %28, %.sink.split ]
  ret i32 %.016
}